; Function Attrs: nounwind sspstrong uwtable
define dso_local zeroext i16 @rb_fix2ushort(i64 noundef %0) local_unnamed_addr #2 {
  %2 = alloca i32, align 4
  %3 = and i64 %0, 1
  %.not = icmp eq i64 %3, 0
  br i1 %.not, label %4, label %15

4:                                                ; preds = %1
  call void @llvm.lifetime.start.p0(i64 4, ptr nonnull %2) #26
  %5 = call fastcc i64 @rb_num2ulong_internal(i64 noundef %0, ptr noundef nonnull %2)
  %6 = load i32, ptr %2, align 4, !tbaa !18
  %.not.i.i = icmp eq i32 %6, 0
  br i1 %.not.i.i, label %11, label %7

7:                                                ; preds = %4
  %8 = icmp ult i64 %5, -32768
  br i1 %8, label %9, label %rb_num2ushort.exit

9:                                                ; preds = %7
  %10 = load i64, ptr @rb_eRangeError, align 8, !tbaa !7
  call void (i64, ptr, ...) @rb_raise(i64 noundef %10, ptr noundef nonnull @.str.142, i64 noundef %5) #25
  unreachable

11:                                               ; preds = %4
  %12 = icmp ugt i64 %5, 65535
  br i1 %12, label %13, label %rb_num2ushort.exit

13:                                               ; preds = %11
  %14 = load i64, ptr @rb_eRangeError, align 8, !tbaa !7
  call void (i64, ptr, ...) @rb_raise(i64 noundef %14, ptr noundef nonnull @.str.143, i64 noundef %5) #25
  unreachable

rb_num2ushort.exit:                               ; preds = %7, %11
  call void @llvm.lifetime.end.p0(i64 4, ptr nonnull %2) #26
  br label %check_ushort.exit

15:                                               ; preds = %1
  %16 = ashr i64 %0, 1
  %.not.i = icmp sgt i64 %0, -1
  br i1 %.not.i, label %21, label %17

17:                                               ; preds = %15
  %18 = icmp ult i64 %16, -32768
  br i1 %18, label %19, label %check_ushort.exit

19:                                               ; preds = %17
  %20 = load i64, ptr @rb_eRangeError, align 8, !tbaa !7
  tail call void (i64, ptr, ...) @rb_raise(i64 noundef %20, ptr noundef nonnull @.str.142, i64 noundef %16) #25
  unreachable

21:                                               ; preds = %15
  %22 = icmp ugt i64 %16, 65535
  br i1 %22, label %23, label %check_ushort.exit

23:                                               ; preds = %21
  %24 = load i64, ptr @rb_eRangeError, align 8, !tbaa !7
  tail call void (i64, ptr, ...) @rb_raise(i64 noundef %24, ptr noundef nonnull @.str.143, i64 noundef %16) #25
  unreachable

check_ushort.exit:                                ; preds = %21, %17, %rb_num2ushort.exit
  %.0.in = phi i64 [ %5, %rb_num2ushort.exit ], [ %16, %17 ], [ %16, %21 ]
  %.0 = trunc i64 %.0.in to i16
  ret i16 %.0
}